target datalayout = "e-m:e-p270:32:32-p271:32:32-p272:64:64-i64:64-i128:128-f80:128-n8:16:32:64-S128"
target triple = "x86_64-pc-linux-gnu"

%"struct.duckdb::LogicalType" = type { i8, i8, %"class.duckdb::shared_ptr" }
%"class.duckdb::shared_ptr" = type { %"class.std::shared_ptr" }
%"class.std::shared_ptr" = type { %"class.std::__shared_ptr" }
%"class.std::__shared_ptr" = type { ptr, %"class.std::__shared_count" }
%"class.std::__shared_count" = type { ptr }

; Function Attrs: inlinehint mustprogress nounwind uwtable
define linkonce_odr noundef zeroext i8 @_ZNK6duckdb11LogicalType2idEv(ptr noundef nonnull align 8 dereferenceable(24) %0) #8 comdat align 2 {
  %2 = alloca ptr, align 8
  store ptr %0, ptr %2, align 8, !tbaa !29
  %3 = load ptr, ptr %2, align 8
  %4 = getelementptr inbounds nuw %"struct.duckdb::LogicalType", ptr %3, i32 0, i32 0
  %5 = load i8, ptr %4, align 8, !tbaa !117
  ret i8 %5
}

; Function Attrs: mustprogress uwtable
define internal noundef zeroext i1 @_ZN6duckdbL19SupportsOtherBucketERKNS_11LogicalTypeE(ptr noundef nonnull align 8 dereferenceable(24) %0) #4 {
  %2 = alloca i1, align 1
  %3 = alloca ptr, align 8
  store ptr %0, ptr %3, align 8, !tbaa !29
  %4 = load ptr, ptr %3, align 8, !tbaa !29
  %5 = call noundef zeroext i1 @_ZNK6duckdb11LogicalType8HasAliasEv(ptr noundef nonnull align 8 dereferenceable(24) %4)
  br i1 %5, label %6, label %7

6:                                                ; preds = %1
  store i1 false, ptr %2, align 1
  br label %12

7:                                                ; preds = %1
  %8 = load ptr, ptr %3, align 8, !tbaa !29
  %9 = call noundef zeroext i8 @_ZNK6duckdb11LogicalType2idEv(ptr noundef nonnull align 8 dereferenceable(24) %8)
  switch i8 %9, label %11 [
    i8 11, label %10
    i8 12, label %10
    i8 13, label %10
    i8 14, label %10
    i8 50, label %10
    i8 22, label %10
    i8 23, label %10
    i8 21, label %10
    i8 28, label %10
    i8 29, label %10
    i8 30, label %10
    i8 31, label %10
    i8 49, label %10
    i8 16, label %10
    i8 34, label %10
    i8 15, label %10
    i8 19, label %10
    i8 32, label %10
    i8 17, label %10
    i8 18, label %10
    i8 20, label %10
    i8 25, label %10
    i8 26, label %10
    i8 100, label %10
    i8 101, label %10
  ]

10:                                               ; preds = %7, %7, %7, %7, %7, %7, %7, %7, %7, %7, %7, %7, %7, %7, %7, %7, %7, %7, %7, %7, %7, %7, %7, %7, %7
  store i1 true, ptr %2, align 1
  br label %12

11:                                               ; preds = %7
  store i1 false, ptr %2, align 1
  br label %12

12:                                               ; preds = %11, %10, %6
  %13 = load i1, ptr %2, align 1
  ret i1 %13
}