; Function Attrs: mustprogress uwtable
define internal fastcc noundef zeroext i1 @_ZN6duckdbL19SupportsOtherBucketERKNS_11LogicalTypeE(ptr noundef nonnull align 8 dereferenceable(24) %0) unnamed_addr #3 {
  %2 = tail call noundef zeroext i1 @_ZNK6duckdb11LogicalType8HasAliasEv(ptr noundef nonnull align 8 dereferenceable(24) %0)
  br i1 %2, label %6, label %3

3:                                                ; preds = %1
  %4 = load i8, ptr %0, align 8, !tbaa !24
  switch i8 %4, label %5 [
    i8 11, label %6
    i8 12, label %6
    i8 13, label %6
    i8 14, label %6
    i8 50, label %6
    i8 22, label %6
    i8 23, label %6
    i8 21, label %6
    i8 28, label %6
    i8 29, label %6
    i8 30, label %6
    i8 31, label %6
    i8 49, label %6
    i8 16, label %6
    i8 34, label %6
    i8 15, label %6
    i8 19, label %6
    i8 32, label %6
    i8 17, label %6
    i8 18, label %6
    i8 20, label %6
    i8 25, label %6
    i8 26, label %6
    i8 100, label %6
    i8 101, label %6
  ]

5:                                                ; preds = %3
  br label %6

6:                                                ; preds = %3, %3, %3, %3, %3, %3, %3, %3, %3, %3, %3, %3, %3, %3, %3, %3, %3, %3, %3, %3, %3, %3, %3, %3, %3, %1, %5
  %.0 = phi i1 [ false, %5 ], [ false, %1 ], [ true, %3 ], [ true, %3 ], [ true, %3 ], [ true, %3 ], [ true, %3 ], [ true, %3 ], [ true, %3 ], [ true, %3 ], [ true, %3 ], [ true, %3 ], [ true, %3 ], [ true, %3 ], [ true, %3 ], [ true, %3 ], [ true, %3 ], [ true, %3 ], [ true, %3 ], [ true, %3 ], [ true, %3 ], [ true, %3 ], [ true, %3 ], [ true, %3 ], [ true, %3 ], [ true, %3 ], [ true, %3 ]
  ret i1 %.0
}